target datalayout = "e-m:e-p270:32:32-p271:32:32-p272:64:64-i64:64-i128:128-f80:128-n8:16:32:64-S128"
target triple = "x86_64-pc-linux-gnu"

%struct.color_t = type { i16, i16, i16 }
%struct._color_filter = type { ptr, ptr, %struct.color_t, %struct.color_t, i8, ptr }
%struct._GSList = type { ptr, ptr }

@.str = private unnamed_addr constant [7 x i8] c"%s%02d\00", align 1
@.str.1 = private unnamed_addr constant [32 x i8] c"___conversation_color_filter___\00", align 1
@color_filter_list = internal global ptr null, align 8

; Function Attrs: null_pointer_is_valid sspstrong uwtable
define ptr @color_filters_get_tmp(i8 noundef zeroext %0) #0 {
  %2 = alloca ptr, align 8
  %3 = alloca i8, align 1
  %4 = alloca ptr, align 8
  %5 = alloca ptr, align 8
  %6 = alloca ptr, align 8
  %7 = alloca ptr, align 8
  %8 = alloca i32, align 4
  store i8 %0, ptr %3, align 1
  call void @llvm.lifetime.start.p0(i64 8, ptr %4) #13
  store ptr null, ptr %4, align 8
  call void @llvm.lifetime.start.p0(i64 8, ptr %5) #13
  store ptr null, ptr %5, align 8
  call void @llvm.lifetime.start.p0(i64 8, ptr %6) #13
  call void @llvm.lifetime.start.p0(i64 8, ptr %7) #13
  %9 = load i8, ptr %3, align 1
  %10 = zext i8 %9 to i32
  %11 = icmp slt i32 %10, 1
  br i1 %11, label %16, label %12

12:                                               ; preds = %1
  %13 = load i8, ptr %3, align 1
  %14 = zext i8 %13 to i32
  %15 = icmp sgt i32 %14, 10
  br i1 %15, label %16, label %17

16:                                               ; preds = %12, %1
  store ptr null, ptr %2, align 8
  store i32 1, ptr %8, align 4
  br label %39

17:                                               ; preds = %12
  %18 = load i8, ptr %3, align 1
  %19 = zext i8 %18 to i32
  %20 = call noalias ptr (ptr, ptr, ...) @wmem_strdup_printf(ptr noundef null, ptr noundef @.str, ptr noundef @.str.1, i32 noundef %19)
  store ptr %20, ptr %4, align 8
  %21 = load ptr, ptr @color_filter_list, align 8
  %22 = load ptr, ptr %4, align 8
  %23 = call ptr @g_slist_find_custom(ptr noundef %21, ptr noundef %22, ptr noundef @color_filters_find_by_name_cb)
  store ptr %23, ptr %6, align 8
  %24 = load ptr, ptr %6, align 8
  %25 = getelementptr inbounds nuw %struct._GSList, ptr %24, i32 0, i32 0
  %26 = load ptr, ptr %25, align 8
  store ptr %26, ptr %7, align 8
  %27 = load ptr, ptr %7, align 8
  %28 = getelementptr inbounds nuw %struct._color_filter, ptr %27, i32 0, i32 4
  %29 = load i8, ptr %28, align 4, !range !6, !noundef !7
  %30 = trunc i8 %29 to i1
  br i1 %30, label %36, label %31

31:                                               ; preds = %17
  %32 = load ptr, ptr %7, align 8
  %33 = getelementptr inbounds nuw %struct._color_filter, ptr %32, i32 0, i32 1
  %34 = load ptr, ptr %33, align 8
  %35 = call noalias ptr @g_strdup(ptr noundef %34)
  store ptr %35, ptr %5, align 8
  br label %36

36:                                               ; preds = %31, %17
  %37 = load ptr, ptr %4, align 8
  call void @g_free(ptr noundef %37)
  %38 = load ptr, ptr %5, align 8
  store ptr %38, ptr %2, align 8
  store i32 1, ptr %8, align 4
  br label %39

39:                                               ; preds = %36, %16
  call void @llvm.lifetime.end.p0(i64 8, ptr %7) #13
  call void @llvm.lifetime.end.p0(i64 8, ptr %6) #13
  call void @llvm.lifetime.end.p0(i64 8, ptr %5) #13
  call void @llvm.lifetime.end.p0(i64 8, ptr %4) #13
  %40 = load ptr, ptr %2, align 8
  ret ptr %40
}