; Function Attrs: null_pointer_is_valid sspstrong uwtable
define noalias ptr @color_filters_get_tmp(i8 noundef zeroext %0) local_unnamed_addr #0 {
  %2 = add i8 %0, -11
  %or.cond = icmp ult i8 %2, -10
  br i1 %or.cond, label %17, label %3

3:                                                ; preds = %1
  %4 = zext nneg i8 %0 to i32
  %5 = tail call noalias ptr (ptr, ptr, ...) @wmem_strdup_printf(ptr noundef null, ptr noundef nonnull @.str, ptr noundef nonnull @.str.1, i32 noundef %4)
  %6 = load ptr, ptr @color_filter_list, align 8
  %7 = tail call ptr @g_slist_find_custom(ptr noundef %6, ptr noundef %5, ptr noundef nonnull @color_filters_find_by_name_cb)
  %8 = load ptr, ptr %7, align 8
  %9 = getelementptr inbounds nuw i8, ptr %8, i64 28
  %10 = load i8, ptr %9, align 4, !range !6, !noundef !7
  %11 = trunc nuw i8 %10 to i1
  br i1 %11, label %16, label %12

12:                                               ; preds = %3
  %13 = getelementptr inbounds nuw i8, ptr %8, i64 8
  %14 = load ptr, ptr %13, align 8
  %15 = tail call noalias ptr @g_strdup(ptr noundef %14)
  br label %16

16:                                               ; preds = %12, %3
  %.011 = phi ptr [ null, %3 ], [ %15, %12 ]
  tail call void @g_free(ptr noundef %5)
  br label %17

17:                                               ; preds = %1, %16
  %.0 = phi ptr [ %.011, %16 ], [ null, %1 ]
  ret ptr %.0
}